(dp1
S'output'
p2
S''
sS'layer'
p3
S'C:\\Users\\suraj\\Desktop\\Studies\\web2py\\applications\\Music_Library/views\\default/song_details.html'
p4
sS'code'
p5
S'response.write(\'<!DOCTYPE html PUBLIC "-//W3C//DTD XHTML 1.0 Transitional//EN" "http://www.w3.org/TR/xhtml1/DTD/xhtml1-transitional.dtd">\\r\\n<!--\\r\\nAuthor: Reality Software\\r\\nWebsite: http://www.realitysoftware.ca\\r\\nNote: This is a free template released under the Creative Commons Attribution 3.0 license, \\r\\nwhich means you can use it in any way you want provided you keep links to the author intact.\\r\\n-->\\r\\n<html xmlns="http://www.w3.org/1999/xhtml">\\r\\n <head>\\r\\n  <title>\\r\\n   \', escape=False)\nresponse.write(response.title or request.application)\nresponse.write(\'\\r\\n  </title>\\r\\n  \', escape=False)\nresponse.files.append(URL(request.application,\'static\',\'plugin_layouts/layouts/Papira/style.css\'))\nresponse.write(\'\\r\\n\', escape=False)\nresponse.files.insert(0,URL(r=request,c=\'static\',f=\'jquery.js\'))\nresponse.files.insert(1,URL(r=request,c=\'static\',f=\'calendar.css\'))\nresponse.files.insert(2,URL(r=request,c=\'static\',f=\'calendar.js\'))\nfor _item in response.meta or []:\n    response.write(\'\\n     <meta name="\', escape=False)\n    response.write(_item)\n    response.write(\'" content="\', escape=False)\n    response.write(response.meta[_item])\n    response.write(\'" />\', escape=False)\n    pass\nfor _k,_file in enumerate(response.files or []):\n    if _file in response.files[:_k]:\n        continue\n    elif _file.lower().endswith(\'.css\'):\n        response.write(\'\\n     <link href="\', escape=False)\n        response.write(_file)\n        response.write(\'" rel="stylesheet" type="text/css" />\', escape=False)\n    elif _file.lower().endswith(\'.js\'):\n        response.write(\'\\n     <script src="\', escape=False)\n        response.write(_file)\n        response.write(\'" type="text/javascript"></script>\', escape=False)\n        pass\n    pass\nresponse.write(\'\\n<script type="text/javascript"><!--\\nfunction popup(url) {\\n  newwindow=window.open(url,\\\'name\\\',\\\'height=400,width=600\\\');\\n  if (window.focus) newwindow.focus();\\n  return false;\\n}\\nfunction collapse(id) { jQuery(\\\'#\\\'+id).slideToggle(); }\\nfunction fade(id,value) { if(value>0) jQuery(\\\'#\\\'+id).hide().fadeIn(\\\'slow\\\'); else jQuery(\\\'#\\\'+id).show().fadeOut(\\\'slow\\\'); }\\nfunction ajax(u,s,t) {\\n    query = \\\'\\\';\\n    if (typeof s == "string") {\\n        d = jQuery(s).serialize();\\n        if(d){ query = d; }\\n    } else {\\n        pcs = [];\\n        for(i=0; i<s.length; i++) {\\n            q = jQuery("#"+s[i]).serialize();\\n            if(q){pcs.push(q);}\\n        }\\n        if (pcs.length>0){query = pcs.join("&");}\\n    }\\n    jQuery.ajax({type: "POST", url: u, data: query, success: function(msg) { if(t) { if(t==\\\':eval\\\') eval(msg); else jQuery("#" + t).html(msg); } } }); \\n}\\nString.prototype.reverse = function () { return this.split(\\\'\\\').reverse().join(\\\'\\\');};\\nfunction web2py_ajax_init() {\\n  jQuery(\\\'.hidden\\\').hide();\\n  jQuery(\\\'.error\\\').hide().slideDown(\\\'slow\\\');\\n  jQuery(\\\'.flash\\\').click(function() { jQuery(this).fadeOut(\\\'slow\\\'); return false; });\\n  jQuery(\\\'input.integer\\\').keyup(function(){this.value=this.value.reverse().replace(/[^0-9\\\\-]|\\\\-(?=.)/g,\\\'\\\').reverse();});\\n  jQuery(\\\'input.double\\\').keyup(function(){this.value=this.value.reverse().replace(/[^0-9\\\\-\\\\.]|[\\\\-](?=.)|[\\\\.](?=[0-9]*[\\\\.])/g,\\\'\\\').reverse();});\\n  jQuery("input[type=\\\'checkbox\\\'].delete").each(function(){jQuery(this).click(function() { if(this.checked) if(!confirm("\', escape=False)\nresponse.write(T(\'Sure you want to delete this object?\'))\nresponse.write(\'")) this.checked=false; });});\\n  try {jQuery("input.date").focus( function() {Calendar.setup({\\n     inputField:this.id, ifFormat:"\', escape=False)\nresponse.write(T(\'%Y-%m-%d\'))\nresponse.write(\'", showsTime:false\\n  }); }); } catch(e) {};\\n  try { jQuery("input.datetime").focus( function() {Calendar.setup({\\n     inputField:this.id, ifFormat:"\', escape=False)\nresponse.write(T(\'%Y-%m-%d %H:%M:%S\'))\nresponse.write(\'", showsTime: true,timeFormat: "24"\\n  }); }); } catch(e) {};\\n  try { jQuery("input.time").clockpick({\\n      starthour:0, endhour:23, showminutes:true, military:true\\n  }); } catch(e) {};\\n};\\njQuery(document).ready(function(){\\n   jQuery(\\\'.flash\\\').hide();\\n   if(jQuery(\\\'.flash\\\').html()!=\\\'\\\') jQuery(\\\'.flash\\\').slideDown(\\\'slow\\\');\\n   web2py_ajax_init();});\\n\\nfunction web2py_trap_form(action,target) {\\n   jQuery(\\\'#\\\'+target+\\\' form\\\').each(function(i){\\n      var form=jQuery(this);\\n      if(!form.hasClass(\\\'no_trap\\\'))\\n        form.submit(function(obj){\\n         jQuery(\\\'.flash\\\').hide().html(\\\'\\\');\\n         web2py_ajax_page(\\\'post\\\',action,form.serialize(),target);\\n         return false;\\n      });\\n   });\\n}\\n\\nfunction web2py_ajax_page(method,action,data,target) {\\n  jQuery.ajax({\\\'type\\\':method,\\\'url\\\':action,\\\'data\\\':data,\\n    \\\'beforeSend\\\':function(xhr){\\n      xhr.setRequestHeader(\\\'web2py-component-location\\\',document.location);\\n      xhr.setRequestHeader(\\\'web2py-component-element\\\',target);},\\n    \\\'complete\\\':function(xhr,text){\\n      command=xhr.getResponseHeader(\\\'web2py-component-command\\\');\\n      if(command) eval(command);\\n      flash=xhr.getResponseHeader(\\\'web2py-component-flash\\\');\\n      if(flash) jQuery(\\\'.flash\\\').html(flash).slideDown();\\n      },\\n    \\\'success\\\': function(text) {\\n      jQuery(\\\'#\\\'+target).html(text);\\n      web2py_trap_form(action,target);\\n      web2py_ajax_init();\\n      }\\n    });\\n}\\nfunction web2py_component(action,target) {\\n    jQuery(document).ready(function(){ web2py_ajax_page(\\\'get\\\',action,null,target); });\\n}\\n//--></script>\\n\', escape=False)\nresponse.write(\'\\r\\n  <style>\\r\\n   .flash {\\r\\n    z-index: 2;\\r\\n    position: absolute;\\r\\n    top: 0px;\\r\\n    right: 20%;\\r\\n    width: 60%;\\r\\n    height: 50px;\\r\\n    opacity: 0.75;\\r\\n    margin: 0 auto;\\r\\n    text-align: center;\\r\\n    clear: both;\\r\\n    border: 1px #000000 solid;\\r\\n    color: black;\\r\\n    font-size: 12pt;\\r\\n    padding: 100px 10px 10px 10px;\\r\\n    cursor: pointer;\\r\\n    background: white;\\r\\n\\r\\n}\\r\\ndiv.error {\\r\\n    background-color: red;\\r\\n    color: white;\\r\\n    padding: 3px;\\r\\n}\\r\\n  </style>\\r\\n </head>\\r\\n <body>\\r\\n  <div id="all">\\r\\n   <div id="container">\\r\\n    <!-- header -->\\r\\n    <div id="logo">\\r\\n     <a href="#">\\r\\n      <span class="brown">\\r\\n       <strong>\\r\\n       \\r\\n       </strong>\\r\\n      </span>\\r\\n      Music Library\\r\\n     </a>\\r\\n    </div>\\r\\n    <div id="menu">\\r\\n     \', escape=False)\nresponse.write(MENU(response.menu))\nresponse.write(\'\\r\\n    </div>\\r\\n    <!--end header -->\\r\\n    <!-- main -->\\r\\n    <div id="main"> \\r\\n     <div class="flash">\', escape=False)\nresponse.write(response.flash or \'\')\nresponse.write(\'</div>\\r\\n     \', escape=False)\nresponse.write(\'\\r\\n<div align="center">\\r\\n<b><font size="5">\\r\\n<br>Details of Selected Song</br></b></font>\\r\\n</div>\\r\\n<table>\\r\\n\\r\\n<tr>\\r\\n<td width="10%"></td>\\r\\n<td width="65%">\\r\\n\\r\\n\\r\\n<br></br>  \\r\\n  \', escape=False)\nfor details in song:\n    response.write(\'\\r\\n    <font size="3" width="30%"><b>Song Name :</b>\', escape=False)\n    response.write(details.Name)\n    response.write(\'<b></font>\\r\\n    <font size="2" width="30%"><br>Album   : \', escape=False)\n    response.write(details.album)\n    response.write(\'</br></font>\\r\\n    <font size="2" width="20%"><br>Artist  : \', escape=False)\n    response.write(details.artist)\n    response.write(\'</br></font>\\r\\n    <font size="2" width="20%"><br>Uploaded on:  \', escape=False)\n    response.write(details.Upload_on)\n    response.write(\'</br> </font>\\r\\n</td>\\r\\n<td width="25%">\\r\\n<br></br>\\r\\n    <p> <font size="2"><b>\', escape=False)\n    response.write(A(\'Add A Comment\', _href=URL(r=request,f=\'add_comment\',args=[details.id,details.Name])))\n    response.write(\'   <b></font>  \\r\\n    <br> <font size="2"><b>\', escape=False)\n    response.write(A(\'Download\', _href=URL(r=request,f="download",args=details.upload_a_song)))\n    response.write(\'</br><b></font>\\r\\n    <br> <font size="2"><b>\', escape=False)\n    response.write(A(\'Play\', _href=URL(r=request,f="player",args=[details.upload_a_song,details.id])))\n    response.write(\'</br></p><b></font>\\r\\n    \\r\\n    Rate This Song :\', escape=False)\n    response.write(A("1", _href=URL(r=request,f="rating",args=["1",details.id])))\n    response.write(\'\\r\\n    \', escape=False)\n    response.write(A("2", _href=URL(r=request,f="rating",args=["2",details.id])))\n    response.write(\'\\r\\n    \', escape=False)\n    response.write(A("3", _href=URL(r=request,f="rating",args=["3",details.id])))\n    response.write(\'\\r\\n    \', escape=False)\n    response.write(A("4", _href=URL(r=request,f="rating",args=["4",details.id])))\n    response.write(\'\\r\\n    \', escape=False)\n    response.write(A("5", _href=URL(r=request,f="rating",args=["5",details.id])))\n    response.write(\'\\r\\n  \', escape=False)\n    pass\nresponse.write(\'  \\r\\n</ul>\\r\\n<br>\\r\\n\', escape=False)\nfor rate in rating:\n    response.write(\'\\r\\n    \', escape=False)\n    x=rate.Sum\n    response.write(\'\\r\\n    \', escape=False)\n    y=rate.Times_played\n    response.write(\' \\r\\n    \', escape=False)\n    z=0\n    response.write(\'\\r\\n    \', escape=False)\n    z=x/y\n    response.write(\'  \\r\\n\', escape=False)\n    pass\nresponse.write(\'\\r\\nAverage Rating:\\r\\n\', escape=False)\nresponse.write(z)\nresponse.write(\'\\r\\n\\r\\n\', escape=False)\nfor i in Count:\n    response.write(\'\\r\\n\', escape=False)\n    xas=i.view\n    response.write(\'\\r\\n\', escape=False)\n    pass\nresponse.write(\'\\r\\n<br>\\r\\nThis Song has Been \\r\\n\', escape=False)\nresponse.write(xas)\nresponse.write(\'\\r\\nTimes\\r\\n</br>\\r\\n</td>\\r\\n</table>\\r\\n<ul>\\r\\n<font size="4">Previous comments</font>\\r\\n\', escape=False)\nfor commentx in comments:\n    response.write(\'\\r\\n    <li><font size="2">\', escape=False)\n    response.write(commentx.Nick_name)\n    response.write(\' </font>commented\\r\\n    <font size="1">\', escape=False)\n    response.write(commentx.comment)\n    response.write(\'</font>\\r\\n    on \', escape=False)\n    response.write(commentx.Commented_on)\n    response.write(\'</li>\\r\\n\', escape=False)\n    pass\nresponse.write(\'\\r\\n</ul>\\r\\n</div>\\r\\n\', escape=False)\nresponse.write(\'\\r\\n    </div>\\r\\n    <!-- end main -->\\r\\n    <!-- footer -->\\r\\n    <div id="footer">\\r\\n     \\r\\n     <div id="right_footer">\\r\\n      <!-- Please do not change or delete this links. Read the license! Thanks. :-) -->\\r\\n      <!-- <a href="http://www.realitysoftware.ca/website-design.html"> -->\\r\\n       Website design\\r\\n      </a>\\r\\n      by\\r\\n      Suraj Menon & Vibhor Shrivastava\\r\\n      </a>\\r\\n     </div>\\r\\n    </div>\\r\\n    <!-- end footer -->\\r\\n   </div>\\r\\n  </div>\\r\\n </body>\\r\\n</html>\\r\\n\', escape=False)'
p6
sS'traceback'
p7
S'Traceback (most recent call last):\n  File "gluon/restricted.py", line 178, in restricted\n  File "C:\\Users\\suraj\\Desktop\\Studies\\web2py\\applications\\Music_Library/views\\default/song_details.html", line 82, in <module>\nNameError: name \'z\' is not defined\n'
p8
s.