(dp1
S'output'
p2
S''
sS'layer'
p3
S'C:\\Users\\suraj\\Desktop\\Studies\\web2py\\applications\\music_library/views\\default/song_details.html'
p4
sS'code'
p5
S'response.write(\'<!DOCTYPE html PUBLIC "-//W3C//DTD XHTML 1.0 Transitional//EN" "http://www.w3.org/TR/xhtml1/DTD/xhtml1-transitional.dtd">\\n<html xmlns="http://www.w3.org/1999/xhtml">\\n <!-- Template Design by TheWebhub.com | http://www.thewebhub.com | Released for free under a Creative Commons Attribution-Share Alike 3.0 Philippines -->\\n <head>\\n  <title>\\n   <h1>\', escape=False)\nresponse.write(response.title or request.application)\nresponse.write(\'<h1>\\n  </title>\\n  \', escape=False)\nresponse.files.append(URL(request.application,\'static\',\'plugin_layouts/layouts/Background/style.css\'))\nresponse.write(\'\\n\', escape=False)\nresponse.files.insert(0,URL(r=request,c=\'static\',f=\'jquery.js\'))\nresponse.files.insert(1,URL(r=request,c=\'static\',f=\'calendar.css\'))\nresponse.files.insert(2,URL(r=request,c=\'static\',f=\'calendar.js\'))\nfor _item in response.meta or []:\n    response.write(\'\\n     <meta name="\', escape=False)\n    response.write(_item)\n    response.write(\'" content="\', escape=False)\n    response.write(response.meta[_item])\n    response.write(\'" />\', escape=False)\n    pass\nfor _k,_file in enumerate(response.files or []):\n    if _file in response.files[:_k]:\n        continue\n    elif _file.lower().endswith(\'.css\'):\n        response.write(\'\\n     <link href="\', escape=False)\n        response.write(_file)\n        response.write(\'" rel="stylesheet" type="text/css" />\', escape=False)\n    elif _file.lower().endswith(\'.js\'):\n        response.write(\'\\n     <script src="\', escape=False)\n        response.write(_file)\n        response.write(\'" type="text/javascript"></script>\', escape=False)\n        pass\n    pass\nresponse.write(\'\\n<script type="text/javascript"><!--\\nfunction popup(url) {\\n  newwindow=window.open(url,\\\'name\\\',\\\'height=400,width=600\\\');\\n  if (window.focus) newwindow.focus();\\n  return false;\\n}\\nfunction collapse(id) { jQuery(\\\'#\\\'+id).slideToggle(); }\\nfunction fade(id,value) { if(value>0) jQuery(\\\'#\\\'+id).hide().fadeIn(\\\'slow\\\'); else jQuery(\\\'#\\\'+id).show().fadeOut(\\\'slow\\\'); }\\nfunction ajax(u,s,t) {\\n    query = \\\'\\\';\\n    if (typeof s == "string") {\\n        d = jQuery(s).serialize();\\n        if(d){ query = d; }\\n    } else {\\n        pcs = [];\\n        for(i=0; i<s.length; i++) {\\n            q = jQuery("#"+s[i]).serialize();\\n            if(q){pcs.push(q);}\\n        }\\n        if (pcs.length>0){query = pcs.join("&");}\\n    }\\n    jQuery.ajax({type: "POST", url: u, data: query, success: function(msg) { if(t) { if(t==\\\':eval\\\') eval(msg); else jQuery("#" + t).html(msg); } } }); \\n}\\nString.prototype.reverse = function () { return this.split(\\\'\\\').reverse().join(\\\'\\\');};\\nfunction web2py_ajax_init() {\\n  jQuery(\\\'.hidden\\\').hide();\\n  jQuery(\\\'.error\\\').hide().slideDown(\\\'slow\\\');\\n  jQuery(\\\'.flash\\\').click(function() { jQuery(this).fadeOut(\\\'slow\\\'); return false; });\\n  jQuery(\\\'input.integer\\\').keyup(function(){this.value=this.value.reverse().replace(/[^0-9\\\\-]|\\\\-(?=.)/g,\\\'\\\').reverse();});\\n  jQuery(\\\'input.double\\\').keyup(function(){this.value=this.value.reverse().replace(/[^0-9\\\\-\\\\.]|[\\\\-](?=.)|[\\\\.](?=[0-9]*[\\\\.])/g,\\\'\\\').reverse();});\\n  jQuery("input[type=\\\'checkbox\\\'].delete").each(function(){jQuery(this).click(function() { if(this.checked) if(!confirm("\', escape=False)\nresponse.write(T(\'Sure you want to delete this object?\'))\nresponse.write(\'")) this.checked=false; });});\\n  try {jQuery("input.date").focus( function() {Calendar.setup({\\n     inputField:this.id, ifFormat:"\', escape=False)\nresponse.write(T(\'%Y-%m-%d\'))\nresponse.write(\'", showsTime:false\\n  }); }); } catch(e) {};\\n  try { jQuery("input.datetime").focus( function() {Calendar.setup({\\n     inputField:this.id, ifFormat:"\', escape=False)\nresponse.write(T(\'%Y-%m-%d %H:%M:%S\'))\nresponse.write(\'", showsTime: true,timeFormat: "24"\\n  }); }); } catch(e) {};\\n  try { jQuery("input.time").clockpick({\\n      starthour:0, endhour:23, showminutes:true, military:true\\n  }); } catch(e) {};\\n};\\njQuery(document).ready(function(){\\n   jQuery(\\\'.flash\\\').hide();\\n   if(jQuery(\\\'.flash\\\').html()!=\\\'\\\') jQuery(\\\'.flash\\\').slideDown(\\\'slow\\\');\\n   web2py_ajax_init();});\\n\\nfunction web2py_trap_form(action,target) {\\n   jQuery(\\\'#\\\'+target+\\\' form\\\').each(function(i){\\n      var form=jQuery(this);\\n      if(!form.hasClass(\\\'no_trap\\\'))\\n        form.submit(function(obj){\\n         jQuery(\\\'.flash\\\').hide().html(\\\'\\\');\\n         web2py_ajax_page(\\\'post\\\',action,form.serialize(),target);\\n         return false;\\n      });\\n   });\\n}\\n\\nfunction web2py_ajax_page(method,action,data,target) {\\n  jQuery.ajax({\\\'type\\\':method,\\\'url\\\':action,\\\'data\\\':data,\\n    \\\'beforeSend\\\':function(xhr){\\n      xhr.setRequestHeader(\\\'web2py-component-location\\\',document.location);\\n      xhr.setRequestHeader(\\\'web2py-component-element\\\',target);},\\n    \\\'complete\\\':function(xhr,text){\\n      command=xhr.getResponseHeader(\\\'web2py-component-command\\\');\\n      if(command) eval(command);\\n      flash=xhr.getResponseHeader(\\\'web2py-component-flash\\\');\\n      if(flash) jQuery(\\\'.flash\\\').html(flash).slideDown();\\n      },\\n    \\\'success\\\': function(text) {\\n      jQuery(\\\'#\\\'+target).html(text);\\n      web2py_trap_form(action,target);\\n      web2py_ajax_init();\\n      }\\n    });\\n}\\nfunction web2py_component(action,target) {\\n    jQuery(document).ready(function(){ web2py_ajax_page(\\\'get\\\',action,null,target); });\\n}\\n//--></script>\\n\', escape=False)\nresponse.write(\'\\n  <style>\\n   .flash {\\n    z-index: 2;\\n    position: absolute;\\n    top: 0px;\\n    right: 20%;\\n    width: 60%;\\n    height: 50px;\\n    opacity: 0.75;\\n    margin: 0 auto;\\n    text-align: center;\\n    clear: both;\\n    border: 1px #000000 solid;\\n    color: black;\\n    font-size: 12pt;\\n    padding: 100px 10px 10px 10px;\\n    cursor: pointer;\\n    background: white;\\n\\n}\\ndiv.error {\\n    background-color: red;\\n    color: white;\\n    padding: 3px;\\n}\\n  </style>\\n </head>\\n <body>\\n <div id="header">\\n   <h1>\\n    \', escape=False)\nresponse.write(response.title or request.application)\nresponse.write(\'\\n   </h1>\\n   <p>\\n    \\n   </p>\\n  </div> \\n  <!--<div id="menu">\\n   \', escape=False)\nresponse.write(MENU(response.menu))\nresponse.write(\'\\n  </div> -->\\n  <div id="page">\\n   <div id="page-top">\\n    <div id="page-bottom">\\n     <div>\\n      <div id="sidebar">\\n       <div class="bg-top">\\n        <div class="bg-btm">\\n         <!--<h2>\\n          \', escape=False)\nresponse.write(response.subtitle or \'=response.subtitle\')\nresponse.write(\'\\n         </h2>-->\\n         <ul>\\n       <!--   <li>\\n           Consectetuer adipiscing elit. Nam pede  lobortis eget, tempus et, tellus. Etiam neque. Vivamus consequat lorem at nisl.\\n          </li>\\n          <li>\\n           Nullam non wisi a sem semper eleifend. Donec mattis libero eget urna. Duis pretium velit ac mauris. Proin eu wisi suscipit nulla suscipit interdum.\\n          </li>\\n          <li>\\n           Consectetuer adipiscing elit. Nam pede  lobortis eget, tempus et, tellus. Etiam neque. Vivamus consequat lorem at nisl.\\n          </li>\\n          <li>\\n           Nullam non wisi a sem semper eleifend. Donec mattis libero eget urna. Duis pretium velit ac mauris. Proin eu wisi suscipit nulla suscipit interdum.\\n          </li> -->\\n         </ul>\\n        </div>\\n       </div>\\n      </div>\\n      <div id="content">\\n       <div class="flash">\', escape=False)\nresponse.write(response.flash or \'\')\nresponse.write(\'</div>\\n       \', escape=False)\nresponse.write(\'\\r\\n<body style="background-color=grey">\\r\\n<br></br>\\r\\n<font size="5"><b>Details of Selected Song</b></font>\\r\\n\\r\\n\\r\\n\\r\\n<ul> \\r\\n  \', escape=False)\nfor details in song:\n    response.write(\'\\r\\n    <font size="3" width="60%"><b>Song Name </b>\', escape=False)\n    response.write(details.Name)\n    response.write(\'<b></font>\\r\\n    <font size="2" width="60%"><br>Album:\', escape=False)\n    response.write(details.album)\n    response.write(\'</br></font>\\r\\n    <font size="2" width="60%"><br>Artist:\', escape=False)\n    response.write(details.artist)\n    response.write(\'</br></font>\\r\\n    <font size="2" width="60%"><br>Uploaded on:\', escape=False)\n    response.write(details.Upload_on)\n    response.write(\'</br> </font>\\r\\n    <p><h5>\', escape=False)\n    response.write(A("click here to add comment",_href=URL(r=request,f="add_comment",args=details.id)))\n    response.write(\'</h5>  </p>     \\r\\n  \', escape=False)\n    pass\nresponse.write(\'  \\r\\n</ul>\\r\\n\\r\\n<ul>\\r\\n<font size="4">Previous comments</font>\\r\\n\', escape=False)\nfor commentx in comments:\n    response.write(\'\\r\\n    <br><li><font size="2">\', escape=False)\n    response.write(commentx.Nick_name)\n    response.write(\' </font>commented\\r\\n    <font size="1">\', escape=False)\n    response.write(commentx.comment)\n    response.write(\'</font>\\r\\n    on \', escape=False)\n    response.write(commentx.Commented_on)\n    response.write(\'</li></br>\\r\\n\', escape=False)\n    pass\nresponse.write(\'\\r\\n</ul>\\r\\n\', escape=False)\nresponse.write(\'\\n      </div>\\n     </div>\\n     <div style="clear: both;">\\n      &nbsp;\\n     </div>\\n    </div>\\n   </div>\\n  </div>\\n  \\n   <p>\\n    Created By Suraj Menon\\n    \\n    \\n   </p>\\n   </body>\\n</html>\\n\', escape=False)'
p6
sS'traceback'
p7
S'Traceback (most recent call last):\n  File "gluon/restricted.py", line 178, in restricted\n  File "C:\\Users\\suraj\\Desktop\\Studies\\web2py\\applications\\music_library/views\\default/song_details.html", line 60, in <module>\nNameError: name \'comments\' is not defined\n'
p8
s.